; Function Attrs: mustprogress null_pointer_is_valid sspstrong uwtable
define void @_ZN16ExpertInfoDialog26on_actionShowError_toggledEb(ptr noundef align 8 dereferenceable_or_null(232) %0, i1 noundef zeroext %1) local_unnamed_addr #0 align 2 {
  %3 = getelementptr inbounds nuw i8, ptr %0, i64 160
  %4 = load ptr, ptr %3, align 8
  %5 = xor i1 %1, true
  tail call void @_ZN20ExpertInfoProxyModel17setSeverityFilterEib(ptr noundef align 8 dereferenceable_or_null(72) %4, i32 noundef 8388608, i1 noundef zeroext %5)
  %6 = load ptr, ptr %0, align 8
  %7 = getelementptr inbounds nuw i8, ptr %6, i64 464
  %8 = load ptr, ptr %7, align 8
  tail call void %8(ptr noundef align 8 dereferenceable_or_null(232) %0)
  ret void
}